target datalayout = "e-m:e-p270:32:32-p271:32:32-p272:64:64-i64:64-i128:128-f80:128-n8:16:32:64-S128"
target triple = "x86_64-pc-linux-gnu"

%class.MethodLiveness = type { ptr, ptr, i32, i32, ptr, i32, ptr, ptr, %class.ArenaBitMap }
%class.ArenaBitMap = type { %class.GrowableBitMap, ptr }
%class.GrowableBitMap = type { %class.BitMap }
%class.BitMap = type { ptr, i64 }
%"class.MethodLiveness::BasicBlock" = type <{ ptr, i32, i32, %class.ArenaBitMap, %class.ArenaBitMap, %class.ArenaBitMap, %class.ArenaBitMap, %class.ArenaBitMap, i32, [4 x i8], ptr, ptr, ptr, i8, [7 x i8] }>

; Function Attrs: mustprogress nounwind uwtable
define linkonce_odr hidden noundef ptr @_ZNK14MethodLiveness10BasicBlock4nextEv(ptr noundef nonnull align 8 dereferenceable(169) %0) #1 comdat align 2 {
  %2 = alloca ptr, align 8
  store ptr %0, ptr %2, align 8
  %3 = load ptr, ptr %2, align 8
  %4 = getelementptr inbounds %"class.MethodLiveness::BasicBlock", ptr %3, i32 0, i32 12
  %5 = load ptr, ptr %4, align 8
  ret ptr %5
}

; Function Attrs: mustprogress nounwind uwtable
define hidden noundef ptr @_ZN14MethodLiveness13work_list_getEv(ptr noundef nonnull align 8 dereferenceable(80) %0) #1 align 2 {
  %2 = alloca ptr, align 8
  %3 = alloca ptr, align 8
  store ptr %0, ptr %2, align 8
  %4 = load ptr, ptr %2, align 8
  %5 = getelementptr inbounds %class.MethodLiveness, ptr %4, i32 0, i32 7
  %6 = load ptr, ptr %5, align 8
  store ptr %6, ptr %3, align 8
  %7 = load ptr, ptr %3, align 8
  %8 = icmp ne ptr %7, null
  br i1 %8, label %9, label %14

9:                                                ; preds = %1
  %10 = load ptr, ptr %3, align 8
  call void @_ZN14MethodLiveness10BasicBlock16set_on_work_listEb(ptr noundef nonnull align 8 dereferenceable(169) %10, i1 noundef zeroext false)
  %11 = load ptr, ptr %3, align 8
  %12 = call noundef ptr @_ZNK14MethodLiveness10BasicBlock4nextEv(ptr noundef nonnull align 8 dereferenceable(169) %11)
  %13 = getelementptr inbounds %class.MethodLiveness, ptr %4, i32 0, i32 7
  store ptr %12, ptr %13, align 8
  br label %14

14:                                               ; preds = %9, %1
  %15 = load ptr, ptr %3, align 8
  ret ptr %15
}

; Function Attrs: mustprogress nounwind uwtable
define linkonce_odr hidden void @_ZN14MethodLiveness10BasicBlock16set_on_work_listEb(ptr noundef nonnull align 8 dereferenceable(169) %0, i1 noundef zeroext %1) #1 comdat align 2 {
  %3 = alloca ptr, align 8
  %4 = alloca i8, align 1
  store ptr %0, ptr %3, align 8
  %5 = zext i1 %1 to i8
  store i8 %5, ptr %4, align 1
  %6 = load ptr, ptr %3, align 8
  %7 = load i8, ptr %4, align 1
  %8 = trunc i8 %7 to i1
  %9 = getelementptr inbounds %"class.MethodLiveness::BasicBlock", ptr %6, i32 0, i32 13
  %10 = zext i1 %8 to i8
  store i8 %10, ptr %9, align 8
  ret void
}

; Function Attrs: mustprogress nounwind uwtable
define linkonce_odr hidden void @_ZN14MethodLiveness10BasicBlock8set_nextEPS0_(ptr noundef nonnull align 8 dereferenceable(169) %0, ptr noundef %1) #1 comdat align 2 {
  %3 = alloca ptr, align 8
  %4 = alloca ptr, align 8
  store ptr %0, ptr %3, align 8
  store ptr %1, ptr %4, align 8
  %5 = load ptr, ptr %3, align 8
  %6 = load ptr, ptr %4, align 8
  %7 = getelementptr inbounds %"class.MethodLiveness::BasicBlock", ptr %5, i32 0, i32 12
  store ptr %6, ptr %7, align 8
  ret void
}

; Function Attrs: mustprogress nounwind uwtable
define hidden void @_ZN14MethodLiveness18propagate_livenessEv(ptr noundef nonnull align 8 dereferenceable(80) %0) #1 align 2 {
  %2 = alloca ptr, align 8
  %3 = alloca i32, align 4
  %4 = alloca ptr, align 8
  %5 = alloca i32, align 4
  store ptr %0, ptr %2, align 8
  %6 = load ptr, ptr %2, align 8
  %7 = getelementptr inbounds %class.MethodLiveness, ptr %6, i32 0, i32 5
  %8 = load i32, ptr %7, align 8
  store i32 %8, ptr %3, align 4
  %9 = getelementptr inbounds %class.MethodLiveness, ptr %6, i32 0, i32 7
  store ptr null, ptr %9, align 8
  store i32 0, ptr %5, align 4
  br label %10

10:                                               ; preds = %27, %1
  %11 = load i32, ptr %5, align 4
  %12 = load i32, ptr %3, align 4
  %13 = icmp slt i32 %11, %12
  br i1 %13, label %14, label %30

14:                                               ; preds = %10
  %15 = getelementptr inbounds %class.MethodLiveness, ptr %6, i32 0, i32 4
  %16 = load ptr, ptr %15, align 8
  %17 = load i32, ptr %5, align 4
  %18 = sext i32 %17 to i64
  %19 = getelementptr inbounds ptr, ptr %16, i64 %18
  %20 = load ptr, ptr %19, align 8
  store ptr %20, ptr %4, align 8
  %21 = load ptr, ptr %4, align 8
  %22 = getelementptr inbounds %class.MethodLiveness, ptr %6, i32 0, i32 7
  %23 = load ptr, ptr %22, align 8
  call void @_ZN14MethodLiveness10BasicBlock8set_nextEPS0_(ptr noundef nonnull align 8 dereferenceable(169) %21, ptr noundef %23)
  %24 = load ptr, ptr %4, align 8
  call void @_ZN14MethodLiveness10BasicBlock16set_on_work_listEb(ptr noundef nonnull align 8 dereferenceable(169) %24, i1 noundef zeroext true)
  %25 = load ptr, ptr %4, align 8
  %26 = getelementptr inbounds %class.MethodLiveness, ptr %6, i32 0, i32 7
  store ptr %25, ptr %26, align 8
  br label %27

27:                                               ; preds = %14
  %28 = load i32, ptr %5, align 4
  %29 = add nsw i32 %28, 1
  store i32 %29, ptr %5, align 4
  br label %10, !llvm.loop !16

30:                                               ; preds = %10
  br label %31

31:                                               ; preds = %34, %30
  %32 = call noundef ptr @_ZN14MethodLiveness13work_list_getEv(ptr noundef nonnull align 8 dereferenceable(80) %6)
  store ptr %32, ptr %4, align 8
  %33 = icmp ne ptr %32, null
  br i1 %33, label %34, label %36

34:                                               ; preds = %31
  %35 = load ptr, ptr %4, align 8
  call void @_ZN14MethodLiveness10BasicBlock9propagateEPS_(ptr noundef nonnull align 8 dereferenceable(169) %35, ptr noundef %6)
  br label %31, !llvm.loop !17

36:                                               ; preds = %31
  ret void
}