; Function Attrs: mustprogress nounwind uwtable
define hidden void @_ZN14MethodLiveness18propagate_livenessEv(ptr nocapture noundef nonnull align 8 dereferenceable(80) %0) local_unnamed_addr #0 align 2 {
  %2 = getelementptr inbounds i8, ptr %0, i64 32
  %3 = load i32, ptr %2, align 8
  %4 = getelementptr inbounds i8, ptr %0, i64 48
  store ptr null, ptr %4, align 8
  %5 = icmp sgt i32 %3, 0
  br i1 %5, label %.lr.ph, label %._crit_edge

.lr.ph:                                           ; preds = %1
  %6 = getelementptr inbounds i8, ptr %0, i64 24
  %wide.trip.count = zext nneg i32 %3 to i64
  br label %7

7:                                                ; preds = %.lr.ph, %7
  %8 = phi ptr [ null, %.lr.ph ], [ %11, %7 ]
  %indvars.iv = phi i64 [ 0, %.lr.ph ], [ %indvars.iv.next, %7 ]
  %9 = load ptr, ptr %6, align 8
  %10 = getelementptr inbounds ptr, ptr %9, i64 %indvars.iv
  %11 = load ptr, ptr %10, align 8
  %12 = getelementptr inbounds i8, ptr %11, i64 160
  store ptr %8, ptr %12, align 8
  %13 = getelementptr inbounds i8, ptr %11, i64 168
  store i8 1, ptr %13, align 8
  store ptr %11, ptr %4, align 8
  %indvars.iv.next = add nuw nsw i64 %indvars.iv, 1
  %exitcond.not = icmp eq i64 %indvars.iv.next, %wide.trip.count
  br i1 %exitcond.not, label %.lr.ph11, label %7, !llvm.loop !8

.lr.ph11:                                         ; preds = %7, %.lr.ph11
  %14 = phi ptr [ %18, %.lr.ph11 ], [ %11, %7 ]
  %15 = getelementptr inbounds i8, ptr %14, i64 168
  store i8 0, ptr %15, align 8
  %16 = getelementptr inbounds i8, ptr %14, i64 160
  %17 = load ptr, ptr %16, align 8
  store ptr %17, ptr %4, align 8
  tail call void @_ZN14MethodLiveness10BasicBlock9propagateEPS_(ptr noundef nonnull align 8 dereferenceable(169) %14, ptr noundef nonnull %0)
  %18 = load ptr, ptr %4, align 8
  %.not.i = icmp eq ptr %18, null
  br i1 %.not.i, label %._crit_edge, label %.lr.ph11, !llvm.loop !9

._crit_edge:                                      ; preds = %.lr.ph11, %1
  ret void
}